target datalayout = "e-m:e-p270:32:32-p271:32:32-p272:64:64-i64:64-i128:128-f80:128-n8:16:32:64-S128"
target triple = "x86_64-unknown-linux-gnu"

%struct.default_t2uint = type { i8 }
%"class.euf::solve_context_eqs" = type { ptr, ptr, ptr, %class.obj_mark, %class.obj_mark, %class.obj_mark, %class.obj_mark, %class.obj_mark, %class.ptr_vector }
%class.obj_mark = type { %struct.default_t2uint, %class.bit_vector }
%class.bit_vector = type { i32, i32, ptr }
%class.ptr_vector = type { %class.vector }
%class.vector = type { ptr }
%class.dependent_expr = type { ptr, ptr, ptr, ptr }

; Function Attrs: mustprogress nounwind uwtable
define linkonce_odr hidden void @_ZN10bit_vector5resetEv(ptr noundef nonnull align 8 dereferenceable(16) %this) #5 comdat align 2 {
entry:
  %this.addr = alloca ptr, align 8
  store ptr %this, ptr %this.addr, align 8
  %this1 = load ptr, ptr %this.addr, align 8
  %m_data = getelementptr inbounds %class.bit_vector, ptr %this1, i32 0, i32 2
  %0 = load ptr, ptr %m_data, align 8
  %tobool = icmp ne ptr %0, null
  br i1 %tobool, label %if.then, label %if.end

if.then:                                          ; preds = %entry
  %m_data2 = getelementptr inbounds %class.bit_vector, ptr %this1, i32 0, i32 2
  %1 = load ptr, ptr %m_data2, align 8
  %m_capacity = getelementptr inbounds %class.bit_vector, ptr %this1, i32 0, i32 1
  %2 = load i32, ptr %m_capacity, align 4
  %conv = zext i32 %2 to i64
  %mul = mul i64 %conv, 4
  call void @llvm.memset.p0.i64(ptr align 4 %1, i8 0, i64 %mul, i1 false)
  br label %if.end

if.end:                                           ; preds = %if.then, %entry
  %m_num_bits = getelementptr inbounds %class.bit_vector, ptr %this1, i32 0, i32 0
  store i32 0, ptr %m_num_bits, align 8
  ret void
}

; Function Attrs: mustprogress uwtable
define linkonce_odr hidden noundef zeroext i1 @_ZN3euf17solve_context_eqs10is_safe_eqEP4exprS2_(ptr noundef nonnull align 8 dereferenceable(152) %this, ptr noundef %f, ptr noundef %e) #4 comdat align 2 {
entry:
  %this.addr = alloca ptr, align 8
  %f.addr = alloca ptr, align 8
  %e.addr = alloca ptr, align 8
  store ptr %this, ptr %this.addr, align 8
  store ptr %f, ptr %f.addr, align 8
  store ptr %e, ptr %e.addr, align 8
  %this1 = load ptr, ptr %this.addr, align 8
  %0 = load ptr, ptr %f.addr, align 8
  %1 = load ptr, ptr %e.addr, align 8
  %call = call noundef zeroext i1 @_ZN3euf17solve_context_eqs10is_safe_eqEjP4exprbS2_(ptr noundef nonnull align 8 dereferenceable(152) %this1, i32 noundef 0, ptr noundef %0, i1 noundef zeroext false, ptr noundef %1)
  ret i1 %call
}

; Function Attrs: mustprogress nounwind uwtable
define linkonce_odr hidden noundef ptr @_ZNK14dependent_expr3fmlEv(ptr noundef nonnull align 8 dereferenceable(32) %this) #5 comdat align 2 {
entry:
  %this.addr = alloca ptr, align 8
  store ptr %this, ptr %this.addr, align 8
  %this1 = load ptr, ptr %this.addr, align 8
  %m_fml = getelementptr inbounds %class.dependent_expr, ptr %this1, i32 0, i32 1
  %0 = load ptr, ptr %m_fml, align 8
  ret ptr %0
}

; Function Attrs: mustprogress uwtable
define linkonce_odr hidden void @_ZN8obj_markI4expr10bit_vector14default_t2uintIS0_EE5resetEv(ptr noundef nonnull align 8 dereferenceable(24) %this) #4 comdat align 2 {
entry:
  %this.addr = alloca ptr, align 8
  store ptr %this, ptr %this.addr, align 8
  %this1 = load ptr, ptr %this.addr, align 8
  %m_marks = getelementptr inbounds %class.obj_mark, ptr %this1, i32 0, i32 1
  call void @_ZN10bit_vector5resetEv(ptr noundef nonnull align 8 dereferenceable(16) %m_marks)
  ret void
}

; Function Attrs: mustprogress uwtable
define hidden noundef zeroext i1 @_ZN3euf17solve_context_eqs10is_safe_eqEP4expr(ptr noundef nonnull align 8 dereferenceable(152) %this, ptr noundef %e) #4 align 2 {
entry:
  %retval = alloca i1, align 1
  %this.addr = alloca ptr, align 8
  %e.addr = alloca ptr, align 8
  %i = alloca i32, align 4
  store ptr %this, ptr %this.addr, align 8
  store ptr %e, ptr %e.addr, align 8
  %this1 = load ptr, ptr %this.addr, align 8
  %m_and_pos = getelementptr inbounds %"class.euf::solve_context_eqs", ptr %this1, i32 0, i32 3
  call void @_ZN8obj_markI4expr10bit_vector14default_t2uintIS0_EE5resetEv(ptr noundef nonnull align 8 dereferenceable(24) %m_and_pos)
  %m_and_neg = getelementptr inbounds %"class.euf::solve_context_eqs", ptr %this1, i32 0, i32 4
  call void @_ZN8obj_markI4expr10bit_vector14default_t2uintIS0_EE5resetEv(ptr noundef nonnull align 8 dereferenceable(24) %m_and_neg)
  %m_or_pos = getelementptr inbounds %"class.euf::solve_context_eqs", ptr %this1, i32 0, i32 5
  call void @_ZN8obj_markI4expr10bit_vector14default_t2uintIS0_EE5resetEv(ptr noundef nonnull align 8 dereferenceable(24) %m_or_pos)
  %m_or_neg = getelementptr inbounds %"class.euf::solve_context_eqs", ptr %this1, i32 0, i32 6
  call void @_ZN8obj_markI4expr10bit_vector14default_t2uintIS0_EE5resetEv(ptr noundef nonnull align 8 dereferenceable(24) %m_or_neg)
  store i32 0, ptr %i, align 4
  br label %for.cond

for.cond:                                         ; preds = %for.inc, %entry
  %0 = load i32, ptr %i, align 4
  %m_fmls = getelementptr inbounds %"class.euf::solve_context_eqs", ptr %this1, i32 0, i32 1
  %1 = load ptr, ptr %m_fmls, align 8
  %vtable = load ptr, ptr %1, align 8
  %vfn = getelementptr inbounds ptr, ptr %vtable, i64 2
  %2 = load ptr, ptr %vfn, align 8
  %call = call noundef i32 %2(ptr noundef nonnull align 8 dereferenceable(160) %1)
  %cmp = icmp ult i32 %0, %call
  br i1 %cmp, label %for.body, label %for.end

for.body:                                         ; preds = %for.cond
  %m_fmls2 = getelementptr inbounds %"class.euf::solve_context_eqs", ptr %this1, i32 0, i32 1
  %3 = load ptr, ptr %m_fmls2, align 8
  %4 = load i32, ptr %i, align 4
  %vtable3 = load ptr, ptr %3, align 8
  %vfn4 = getelementptr inbounds ptr, ptr %vtable3, i64 3
  %5 = load ptr, ptr %vfn4, align 8
  %call5 = call noundef nonnull align 8 dereferenceable(32) ptr %5(ptr noundef nonnull align 8 dereferenceable(160) %3, i32 noundef %4)
  %call6 = call noundef ptr @_ZNK14dependent_expr3fmlEv(ptr noundef nonnull align 8 dereferenceable(32) %call5)
  %6 = load ptr, ptr %e.addr, align 8
  %call7 = call noundef zeroext i1 @_ZN3euf17solve_context_eqs10is_safe_eqEP4exprS2_(ptr noundef nonnull align 8 dereferenceable(152) %this1, ptr noundef %call6, ptr noundef %6)
  br i1 %call7, label %if.end, label %if.then

if.then:                                          ; preds = %for.body
  store i1 false, ptr %retval, align 1
  br label %return

if.end:                                           ; preds = %for.body
  br label %for.inc

for.inc:                                          ; preds = %if.end
  %7 = load i32, ptr %i, align 4
  %inc = add i32 %7, 1
  store i32 %inc, ptr %i, align 4
  br label %for.cond, !llvm.loop !4

for.end:                                          ; preds = %for.cond
  store i1 true, ptr %retval, align 1
  br label %return

return:                                           ; preds = %for.end, %if.then
  %8 = load i1, ptr %retval, align 1
  ret i1 %8
}