; Function Attrs: mustprogress uwtable
define hidden noundef zeroext i1 @_ZN3euf17solve_context_eqs10is_safe_eqEP4expr(ptr noundef nonnull align 8 dereferenceable(152) %this, ptr noundef %e) local_unnamed_addr #5 align 2 {
entry:
  %m_data.i.i = getelementptr inbounds i8, ptr %this, i64 40
  %0 = load ptr, ptr %m_data.i.i, align 8
  %tobool.not.i.i = icmp eq ptr %0, null
  br i1 %tobool.not.i.i, label %_ZN8obj_markI4expr10bit_vector14default_t2uintIS0_EE5resetEv.exit, label %if.then.i.i

if.then.i.i:                                      ; preds = %entry
  %m_capacity.i.i = getelementptr inbounds i8, ptr %this, i64 36
  %1 = load i32, ptr %m_capacity.i.i, align 4
  %conv.i.i = zext i32 %1 to i64
  %mul.i.i = shl nuw nsw i64 %conv.i.i, 2
  tail call void @llvm.memset.p0.i64(ptr nonnull align 4 %0, i8 0, i64 %mul.i.i, i1 false)
  br label %_ZN8obj_markI4expr10bit_vector14default_t2uintIS0_EE5resetEv.exit

_ZN8obj_markI4expr10bit_vector14default_t2uintIS0_EE5resetEv.exit: ; preds = %entry, %if.then.i.i
  %m_marks.i = getelementptr inbounds i8, ptr %this, i64 32
  store i32 0, ptr %m_marks.i, align 8
  %m_data.i.i3 = getelementptr inbounds i8, ptr %this, i64 64
  %2 = load ptr, ptr %m_data.i.i3, align 8
  %tobool.not.i.i4 = icmp eq ptr %2, null
  br i1 %tobool.not.i.i4, label %_ZN8obj_markI4expr10bit_vector14default_t2uintIS0_EE5resetEv.exit10, label %if.then.i.i5

if.then.i.i5:                                     ; preds = %_ZN8obj_markI4expr10bit_vector14default_t2uintIS0_EE5resetEv.exit
  %m_capacity.i.i6 = getelementptr inbounds i8, ptr %this, i64 60
  %3 = load i32, ptr %m_capacity.i.i6, align 4
  %conv.i.i7 = zext i32 %3 to i64
  %mul.i.i8 = shl nuw nsw i64 %conv.i.i7, 2
  tail call void @llvm.memset.p0.i64(ptr nonnull align 4 %2, i8 0, i64 %mul.i.i8, i1 false)
  br label %_ZN8obj_markI4expr10bit_vector14default_t2uintIS0_EE5resetEv.exit10

_ZN8obj_markI4expr10bit_vector14default_t2uintIS0_EE5resetEv.exit10: ; preds = %_ZN8obj_markI4expr10bit_vector14default_t2uintIS0_EE5resetEv.exit, %if.then.i.i5
  %m_marks.i9 = getelementptr inbounds i8, ptr %this, i64 56
  store i32 0, ptr %m_marks.i9, align 8
  %m_data.i.i11 = getelementptr inbounds i8, ptr %this, i64 88
  %4 = load ptr, ptr %m_data.i.i11, align 8
  %tobool.not.i.i12 = icmp eq ptr %4, null
  br i1 %tobool.not.i.i12, label %_ZN8obj_markI4expr10bit_vector14default_t2uintIS0_EE5resetEv.exit18, label %if.then.i.i13

if.then.i.i13:                                    ; preds = %_ZN8obj_markI4expr10bit_vector14default_t2uintIS0_EE5resetEv.exit10
  %m_capacity.i.i14 = getelementptr inbounds i8, ptr %this, i64 84
  %5 = load i32, ptr %m_capacity.i.i14, align 4
  %conv.i.i15 = zext i32 %5 to i64
  %mul.i.i16 = shl nuw nsw i64 %conv.i.i15, 2
  tail call void @llvm.memset.p0.i64(ptr nonnull align 4 %4, i8 0, i64 %mul.i.i16, i1 false)
  br label %_ZN8obj_markI4expr10bit_vector14default_t2uintIS0_EE5resetEv.exit18

_ZN8obj_markI4expr10bit_vector14default_t2uintIS0_EE5resetEv.exit18: ; preds = %_ZN8obj_markI4expr10bit_vector14default_t2uintIS0_EE5resetEv.exit10, %if.then.i.i13
  %m_marks.i17 = getelementptr inbounds i8, ptr %this, i64 80
  store i32 0, ptr %m_marks.i17, align 8
  %m_data.i.i19 = getelementptr inbounds i8, ptr %this, i64 112
  %6 = load ptr, ptr %m_data.i.i19, align 8
  %tobool.not.i.i20 = icmp eq ptr %6, null
  br i1 %tobool.not.i.i20, label %_ZN8obj_markI4expr10bit_vector14default_t2uintIS0_EE5resetEv.exit26, label %if.then.i.i21

if.then.i.i21:                                    ; preds = %_ZN8obj_markI4expr10bit_vector14default_t2uintIS0_EE5resetEv.exit18
  %m_capacity.i.i22 = getelementptr inbounds i8, ptr %this, i64 108
  %7 = load i32, ptr %m_capacity.i.i22, align 4
  %conv.i.i23 = zext i32 %7 to i64
  %mul.i.i24 = shl nuw nsw i64 %conv.i.i23, 2
  tail call void @llvm.memset.p0.i64(ptr nonnull align 4 %6, i8 0, i64 %mul.i.i24, i1 false)
  br label %_ZN8obj_markI4expr10bit_vector14default_t2uintIS0_EE5resetEv.exit26

_ZN8obj_markI4expr10bit_vector14default_t2uintIS0_EE5resetEv.exit26: ; preds = %_ZN8obj_markI4expr10bit_vector14default_t2uintIS0_EE5resetEv.exit18, %if.then.i.i21
  %m_marks.i25 = getelementptr inbounds i8, ptr %this, i64 104
  store i32 0, ptr %m_marks.i25, align 8
  %m_fmls = getelementptr inbounds i8, ptr %this, i64 8
  %8 = load ptr, ptr %m_fmls, align 8
  %vtable27 = load ptr, ptr %8, align 8
  %vfn28 = getelementptr inbounds i8, ptr %vtable27, i64 16
  %9 = load ptr, ptr %vfn28, align 8
  %call29 = tail call noundef i32 %9(ptr noundef nonnull align 8 dereferenceable(160) %8)
  %cmp30 = icmp eq i32 %call29, 0
  br i1 %cmp30, label %return, label %for.body

for.cond:                                         ; preds = %for.body
  %inc = add nuw i32 %i.031, 1
  %10 = load ptr, ptr %m_fmls, align 8
  %vtable = load ptr, ptr %10, align 8
  %vfn = getelementptr inbounds i8, ptr %vtable, i64 16
  %11 = load ptr, ptr %vfn, align 8
  %call = tail call noundef i32 %11(ptr noundef nonnull align 8 dereferenceable(160) %10)
  %cmp.not = icmp ult i32 %inc, %call
  br i1 %cmp.not, label %for.body, label %return, !llvm.loop !4

for.body:                                         ; preds = %_ZN8obj_markI4expr10bit_vector14default_t2uintIS0_EE5resetEv.exit26, %for.cond
  %i.031 = phi i32 [ %inc, %for.cond ], [ 0, %_ZN8obj_markI4expr10bit_vector14default_t2uintIS0_EE5resetEv.exit26 ]
  %12 = load ptr, ptr %m_fmls, align 8
  %vtable3 = load ptr, ptr %12, align 8
  %vfn4 = getelementptr inbounds i8, ptr %vtable3, i64 24
  %13 = load ptr, ptr %vfn4, align 8
  %call5 = tail call noundef nonnull align 8 dereferenceable(32) ptr %13(ptr noundef nonnull align 8 dereferenceable(160) %12, i32 noundef %i.031)
  %m_fml.i = getelementptr inbounds i8, ptr %call5, i64 8
  %14 = load ptr, ptr %m_fml.i, align 8
  %call.i = tail call noundef zeroext i1 @_ZN3euf17solve_context_eqs10is_safe_eqEjP4exprbS2_(ptr noundef nonnull align 8 dereferenceable(152) %this, i32 noundef 0, ptr noundef %14, i1 noundef zeroext false, ptr noundef %e)
  br i1 %call.i, label %for.cond, label %return

return:                                           ; preds = %for.body, %for.cond, %_ZN8obj_markI4expr10bit_vector14default_t2uintIS0_EE5resetEv.exit26
  %cmp.lcssa = phi i1 [ true, %_ZN8obj_markI4expr10bit_vector14default_t2uintIS0_EE5resetEv.exit26 ], [ %call.i, %for.cond ], [ %call.i, %for.body ]
  ret i1 %cmp.lcssa
}